target datalayout = "e-m:e-p270:32:32-p271:32:32-p272:64:64-i64:64-i128:128-f80:128-n8:16:32:64-S128"
target triple = "x86_64-pc-linux-gnu"

%struct.slurm_conf_t = type { i64, ptr, i16, ptr, ptr, ptr, ptr, ptr, i16, ptr, ptr, ptr, ptr, ptr, ptr, ptr, i16, ptr, ptr, ptr, ptr, i16, ptr, ptr, ptr, i64, ptr, ptr, ptr, ptr, i16, ptr, ptr, i16, i32, ptr, i32, ptr, i32, i32, ptr, ptr, i64, i64, ptr, i16, i16, ptr, i32, i32, ptr, i32, ptr, i32, i16, i16, i16, ptr, i16, i16, ptr, ptr, i32, i16, i16, ptr, i32, i16, ptr, ptr, ptr, ptr, i16, ptr, ptr, ptr, ptr, i32, ptr, ptr, ptr, ptr, i16, i16, ptr, i32, i32, i32, i16, i16, ptr, ptr, i16, ptr, ptr, i32, i32, i32, i32, i32, i64, i32, i32, i16, ptr, ptr, i32, ptr, ptr, ptr, i16, i32, ptr, ptr, i16, ptr, ptr, i32, i16, ptr, ptr, ptr, ptr, i32, i32, i16, i16, i32, ptr, i16, ptr, i32, i32, i32, i32, i32, i32, ptr, i16, ptr, ptr, i32, i16, ptr, i32, i16, i16, ptr, ptr, ptr, i16, ptr, ptr, ptr, ptr, i16, i16, ptr, i16, ptr, i16, ptr, i16, ptr, i16, ptr, ptr, ptr, ptr, i16, ptr, ptr, ptr, i32, ptr, i32, ptr, ptr, i16, ptr, ptr, i32, i16, ptr, ptr, i16, i16, ptr, i16, ptr, ptr, ptr, i32, ptr, i16, i16, ptr, ptr, ptr, ptr, ptr, ptr, ptr, ptr, i16, i32, i16, ptr, ptr, ptr, ptr, i32, ptr, ptr, ptr, i16, ptr, ptr, ptr, i16, ptr, i16, ptr, i16, i16, ptr }
%struct.slurm_jc_conf = type { i8, ptr, ptr, ptr, i32, i32, ptr, i8, ptr, i8 }
%struct.slurm_step_id_msg = type { i64, i32, i32, i32 }

@plugin_type = dso_local constant [20 x i8] c"job_container/tmpfs\00", align 16
@jc_conf = internal global ptr null, align 8
@plugin_disabled = internal global i8 0, align 1
@.str.9 = private unnamed_addr constant [27 x i8] c"%s: open failed for %s: %m\00", align 1
@__func__.container_p_join = private unnamed_addr constant [17 x i8] c"container_p_join\00", align 1
@.str.10 = private unnamed_addr constant [28 x i8] c"%s: setns failed for %s: %m\00", align 1
@slurm_conf = external global %struct.slurm_conf_t, align 8
@.str.11 = private unnamed_addr constant [43 x i8] c"%s: %s: JOB_CONT: job %u entered namespace\00", align 1
@.str.25 = private unnamed_addr constant [6 x i8] c"%s/%u\00", align 1
@.str.26 = private unnamed_addr constant [7 x i8] c"%s/.ns\00", align 1
@.str.27 = private unnamed_addr constant [7 x i8] c"%s/.%u\00", align 1

; Function Attrs: nounwind uwtable
define internal void @_create_paths(i32 noundef %0, ptr noundef %1, ptr noundef %2, ptr noundef %3) #0 {
  %5 = alloca i32, align 4
  %6 = alloca ptr, align 8
  %7 = alloca ptr, align 8
  %8 = alloca ptr, align 8
  store i32 %0, ptr %5, align 4
  store ptr %1, ptr %6, align 8
  store ptr %2, ptr %7, align 8
  store ptr %3, ptr %8, align 8
  %9 = load ptr, ptr %6, align 8
  %10 = load ptr, ptr @jc_conf, align 8
  %11 = getelementptr inbounds nuw %struct.slurm_jc_conf, ptr %10, i32 0, i32 1
  %12 = load ptr, ptr %11, align 8
  %13 = load i32, ptr %5, align 4
  call void (ptr, ptr, ...) @slurm_xstrfmtcat(ptr noundef %9, ptr noundef @.str.25, ptr noundef %12, i32 noundef %13)
  %14 = load ptr, ptr %7, align 8
  %15 = icmp ne ptr %14, null
  br i1 %15, label %16, label %20

16:                                               ; preds = %4
  %17 = load ptr, ptr %7, align 8
  %18 = load ptr, ptr %6, align 8
  %19 = load ptr, ptr %18, align 8
  call void (ptr, ptr, ...) @slurm_xstrfmtcat(ptr noundef %17, ptr noundef @.str.26, ptr noundef %19)
  br label %20

20:                                               ; preds = %16, %4
  %21 = load ptr, ptr %8, align 8
  %22 = icmp ne ptr %21, null
  br i1 %22, label %23, label %28

23:                                               ; preds = %20
  %24 = load ptr, ptr %8, align 8
  %25 = load ptr, ptr %6, align 8
  %26 = load ptr, ptr %25, align 8
  %27 = load i32, ptr %5, align 4
  call void (ptr, ptr, ...) @slurm_xstrfmtcat(ptr noundef %24, ptr noundef @.str.27, ptr noundef %26, i32 noundef %27)
  br label %28

28:                                               ; preds = %23, %20
  ret void
}

; Function Attrs: nounwind uwtable
define dso_local i32 @container_p_join(ptr noundef %0, i32 noundef %1, i1 noundef zeroext %2) #0 {
  %4 = alloca i32, align 4
  %5 = alloca ptr, align 8
  %6 = alloca i32, align 4
  %7 = alloca i8, align 1
  %8 = alloca ptr, align 8
  %9 = alloca ptr, align 8
  %10 = alloca i32, align 4
  %11 = alloca i32, align 4
  %12 = alloca i32, align 4
  store ptr %0, ptr %5, align 8
  store i32 %1, ptr %6, align 4
  %13 = zext i1 %2 to i8
  store i8 %13, ptr %7, align 1
  call void @llvm.lifetime.start.p0(i64 8, ptr %8) #8
  store ptr null, ptr %8, align 8
  call void @llvm.lifetime.start.p0(i64 8, ptr %9) #8
  store ptr null, ptr %9, align 8
  call void @llvm.lifetime.start.p0(i64 4, ptr %10) #8
  call void @llvm.lifetime.start.p0(i64 4, ptr %11) #8
  store i32 0, ptr %11, align 4
  %14 = load i8, ptr @plugin_disabled, align 1, !range !8, !noundef !9
  %15 = trunc i8 %14 to i1
  br i1 %15, label %16, label %17

16:                                               ; preds = %3
  store i32 0, ptr %4, align 4
  store i32 1, ptr %12, align 4
  br label %89

17:                                               ; preds = %3
  %18 = load ptr, ptr @jc_conf, align 8
  %19 = getelementptr inbounds nuw %struct.slurm_jc_conf, ptr %18, i32 0, i32 7
  %20 = load i8, ptr %19, align 8, !range !8, !noundef !9
  %21 = trunc i8 %20 to i1
  br i1 %21, label %27, label %22

22:                                               ; preds = %17
  %23 = call zeroext i1 @slurm_running_in_slurmd()
  br i1 %23, label %24, label %27

24:                                               ; preds = %22
  %25 = load i8, ptr %7, align 1, !range !8, !noundef !9
  %26 = trunc i8 %25 to i1
  br i1 %26, label %39, label %27

27:                                               ; preds = %24, %22, %17
  %28 = load ptr, ptr @jc_conf, align 8
  %29 = getelementptr inbounds nuw %struct.slurm_jc_conf, ptr %28, i32 0, i32 7
  %30 = load i8, ptr %29, align 8, !range !8, !noundef !9
  %31 = trunc i8 %30 to i1
  br i1 %31, label %32, label %40

32:                                               ; preds = %27
  %33 = call zeroext i1 @slurm_running_in_slurmstepd()
  br i1 %33, label %34, label %40

34:                                               ; preds = %32
  %35 = load ptr, ptr %5, align 8
  %36 = getelementptr inbounds nuw %struct.slurm_step_id_msg, ptr %35, i32 0, i32 3
  %37 = load i32, ptr %36, align 8
  %38 = icmp ne i32 %37, -4
  br i1 %38, label %39, label %40

39:                                               ; preds = %34, %24
  store i32 0, ptr %4, align 4
  store i32 1, ptr %12, align 4
  br label %89

40:                                               ; preds = %34, %32, %27
  %41 = load ptr, ptr %5, align 8
  %42 = getelementptr inbounds nuw %struct.slurm_step_id_msg, ptr %41, i32 0, i32 1
  %43 = load i32, ptr %42, align 8
  %44 = icmp eq i32 %43, 0
  br i1 %44, label %45, label %46

45:                                               ; preds = %40
  store i32 0, ptr %4, align 4
  store i32 1, ptr %12, align 4
  br label %89

46:                                               ; preds = %40
  %47 = load ptr, ptr %5, align 8
  %48 = getelementptr inbounds nuw %struct.slurm_step_id_msg, ptr %47, i32 0, i32 1
  %49 = load i32, ptr %48, align 8
  call void @_create_paths(i32 noundef %49, ptr noundef %8, ptr noundef %9, ptr noundef null)
  %50 = load ptr, ptr %9, align 8
  %51 = call i32 (ptr, i32, ...) @open(ptr noundef %50, i32 noundef 0)
  store i32 %51, ptr %10, align 4
  %52 = load i32, ptr %10, align 4
  %53 = icmp eq i32 %52, -1
  br i1 %53, label %54, label %57

54:                                               ; preds = %46
  %55 = load ptr, ptr %9, align 8
  %56 = call i32 (ptr, ...) @slurm_error(ptr noundef @.str.9, ptr noundef @__func__.container_p_join, ptr noundef %55)
  call void @slurm_xfree(ptr noundef %8)
  call void @slurm_xfree(ptr noundef %9)
  store i32 -1, ptr %4, align 4
  store i32 1, ptr %12, align 4
  br label %89

57:                                               ; preds = %46
  %58 = load i32, ptr %10, align 4
  %59 = call i32 @setns(i32 noundef %58, i32 noundef 131072) #8
  store i32 %59, ptr %11, align 4
  %60 = load i32, ptr %11, align 4
  %61 = icmp ne i32 %60, 0
  br i1 %61, label %62, label %67

62:                                               ; preds = %57
  %63 = load ptr, ptr %9, align 8
  %64 = call i32 (ptr, ...) @slurm_error(ptr noundef @.str.10, ptr noundef @__func__.container_p_join, ptr noundef %63)
  %65 = load i32, ptr %10, align 4
  %66 = call i32 @close(i32 noundef %65)
  call void @slurm_xfree(ptr noundef %8)
  call void @slurm_xfree(ptr noundef %9)
  store i32 -1, ptr %4, align 4
  store i32 1, ptr %12, align 4
  br label %89

67:                                               ; preds = %57
  br label %68

68:                                               ; preds = %67
  %69 = load i64, ptr getelementptr inbounds nuw (%struct.slurm_conf_t, ptr @slurm_conf, i32 0, i32 42), align 8
  %70 = and i64 %69, 16777216
  %71 = icmp ne i64 %70, 0
  br i1 %71, label %72, label %83

72:                                               ; preds = %68
  br label %73

73:                                               ; preds = %72
  %74 = call i32 @slurm_get_log_level()
  %75 = icmp sge i32 %74, 4
  br i1 %75, label %76, label %80

76:                                               ; preds = %73
  %77 = load ptr, ptr %5, align 8
  %78 = getelementptr inbounds nuw %struct.slurm_step_id_msg, ptr %77, i32 0, i32 1
  %79 = load i32, ptr %78, align 8
  call void (i32, ptr, ...) @slurm_log_var(i32 noundef 4, ptr noundef @.str.11, ptr noundef @plugin_type, ptr noundef @__func__.container_p_join, i32 noundef %79)
  br label %80

80:                                               ; preds = %76, %73
  br label %81

81:                                               ; preds = %80
  br label %82

82:                                               ; preds = %81
  br label %83

83:                                               ; preds = %82, %68
  br label %84

84:                                               ; preds = %83
  br label %85

85:                                               ; preds = %84
  br label %86

86:                                               ; preds = %85
  %87 = load i32, ptr %10, align 4
  %88 = call i32 @close(i32 noundef %87)
  call void @slurm_xfree(ptr noundef %8)
  call void @slurm_xfree(ptr noundef %9)
  store i32 0, ptr %4, align 4
  store i32 1, ptr %12, align 4
  br label %89

89:                                               ; preds = %86, %62, %54, %45, %39, %16
  call void @llvm.lifetime.end.p0(i64 4, ptr %11) #8
  call void @llvm.lifetime.end.p0(i64 4, ptr %10) #8
  call void @llvm.lifetime.end.p0(i64 8, ptr %9) #8
  call void @llvm.lifetime.end.p0(i64 8, ptr %8) #8
  %90 = load i32, ptr %4, align 4
  ret i32 %90
}