; Function Attrs: nounwind uwtable
define dso_local range(i32 -1, 1) i32 @container_p_join(ptr noundef readonly captures(none) %0, i32 noundef %1, i1 noundef zeroext %2) local_unnamed_addr #0 {
  %4 = alloca ptr, align 8
  %5 = alloca ptr, align 8
  call void @llvm.lifetime.start.p0(i64 8, ptr nonnull %4) #12
  store ptr null, ptr %4, align 8
  call void @llvm.lifetime.start.p0(i64 8, ptr nonnull %5) #12
  store ptr null, ptr %5, align 8
  %6 = load i8, ptr @plugin_disabled, align 1, !range !8, !noundef !9
  %7 = trunc nuw i8 %6 to i1
  br i1 %7, label %52, label %8

8:                                                ; preds = %3
  %9 = load ptr, ptr @jc_conf, align 8
  %10 = getelementptr inbounds nuw i8, ptr %9, i64 48
  %11 = load i8, ptr %10, align 8, !range !8, !noundef !9
  %12 = trunc nuw i8 %11 to i1
  br i1 %12, label %.thread, label %13

13:                                               ; preds = %8
  %14 = tail call zeroext i1 @slurm_running_in_slurmd() #12
  %brmerge.demorgan = and i1 %2, %14
  br i1 %brmerge.demorgan, label %52, label %15

15:                                               ; preds = %13
  %.pre = load ptr, ptr @jc_conf, align 8
  %.phi.trans.insert = getelementptr inbounds nuw i8, ptr %.pre, i64 48
  %.pre16 = load i8, ptr %.phi.trans.insert, align 8, !range !8
  %16 = trunc nuw i8 %.pre16 to i1
  br i1 %16, label %.thread, label %21

.thread:                                          ; preds = %8, %15
  %17 = tail call zeroext i1 @slurm_running_in_slurmstepd() #12
  br i1 %17, label %18, label %21

18:                                               ; preds = %.thread
  %19 = getelementptr inbounds nuw i8, ptr %0, i64 16
  %20 = load i32, ptr %19, align 8
  %.not = icmp eq i32 %20, -4
  br i1 %.not, label %21, label %52

21:                                               ; preds = %18, %.thread, %15
  %22 = getelementptr inbounds nuw i8, ptr %0, i64 8
  %23 = load i32, ptr %22, align 8
  %24 = icmp eq i32 %23, 0
  br i1 %24, label %52, label %25

25:                                               ; preds = %21
  %26 = load ptr, ptr @jc_conf, align 8
  %27 = getelementptr inbounds nuw i8, ptr %26, i64 8
  %28 = load ptr, ptr %27, align 8
  call void (ptr, ptr, ...) @slurm_xstrfmtcat(ptr noundef nonnull %4, ptr noundef nonnull @.str.25, ptr noundef %28, i32 noundef %23) #12
  %29 = load ptr, ptr %4, align 8
  call void (ptr, ptr, ...) @slurm_xstrfmtcat(ptr noundef nonnull %5, ptr noundef nonnull @.str.26, ptr noundef %29) #12
  %30 = load ptr, ptr %5, align 8
  %31 = call i32 (ptr, i32, ...) @open(ptr noundef %30, i32 noundef 0) #12
  %32 = icmp eq i32 %31, -1
  br i1 %32, label %33, label %36

33:                                               ; preds = %25
  %34 = load ptr, ptr %5, align 8
  %35 = call i32 (ptr, ...) @slurm_error(ptr noundef nonnull @.str.9, ptr noundef nonnull @__func__.container_p_join, ptr noundef %34) #12
  br label %.sink.split

36:                                               ; preds = %25
  %37 = call i32 @setns(i32 noundef %31, i32 noundef 131072) #12
  %.not12 = icmp eq i32 %37, 0
  br i1 %.not12, label %42, label %38

38:                                               ; preds = %36
  %39 = load ptr, ptr %5, align 8
  %40 = call i32 (ptr, ...) @slurm_error(ptr noundef nonnull @.str.10, ptr noundef nonnull @__func__.container_p_join, ptr noundef %39) #12
  %41 = call i32 @close(i32 noundef %31) #12
  br label %.sink.split

42:                                               ; preds = %36
  %43 = load i64, ptr getelementptr inbounds nuw (i8, ptr @slurm_conf, i64 320), align 8
  %44 = and i64 %43, 16777216
  %.not13 = icmp eq i64 %44, 0
  br i1 %.not13, label %50, label %45

45:                                               ; preds = %42
  %46 = call i32 @slurm_get_log_level() #12
  %47 = icmp sgt i32 %46, 3
  br i1 %47, label %48, label %50

48:                                               ; preds = %45
  %49 = load i32, ptr %22, align 8
  call void (i32, ptr, ...) @slurm_log_var(i32 noundef 4, ptr noundef nonnull @.str.11, ptr noundef nonnull @plugin_type, ptr noundef nonnull @__func__.container_p_join, i32 noundef %49) #12
  br label %50

50:                                               ; preds = %42, %48, %45
  %51 = call i32 @close(i32 noundef %31) #12
  br label %.sink.split

.sink.split:                                      ; preds = %33, %38, %50
  %.0.ph = phi i32 [ 0, %50 ], [ -1, %38 ], [ -1, %33 ]
  call void @slurm_xfree(ptr noundef nonnull %4) #12
  call void @slurm_xfree(ptr noundef nonnull %5) #12
  br label %52

52:                                               ; preds = %.sink.split, %21, %18, %13, %3
  %.0 = phi i32 [ 0, %3 ], [ 0, %13 ], [ 0, %18 ], [ 0, %21 ], [ %.0.ph, %.sink.split ]
  call void @llvm.lifetime.end.p0(i64 8, ptr nonnull %5) #12
  call void @llvm.lifetime.end.p0(i64 8, ptr nonnull %4) #12
  ret i32 %.0
}